; Function Attrs: mustprogress nofree norecurse nosync nounwind willreturn memory(read, inaccessiblemem: none) uwtable
define hidden noundef zeroext i1 @_ZN10ODDLParser13OpenDDLParser8validateEv(ptr noundef nonnull readonly align 8 captures(none) dereferenceable(88) %0) local_unnamed_addr #17 align 2 {
  %2 = getelementptr inbounds nuw i8, ptr %0, i64 32
  %3 = load ptr, ptr %2, align 8
  %4 = getelementptr inbounds nuw i8, ptr %0, i64 40
  %5 = load ptr, ptr %4, align 8
  %6 = icmp eq ptr %3, %5
  br i1 %6, label %_ZN10ODDLParser9isNumericIcEEbT_.exit.thread, label %7

7:                                                ; preds = %1
  %8 = load i8, ptr %3, align 1
  %9 = and i8 %8, -33
  %10 = add i8 %9, -65
  %11 = icmp ult i8 %10, 26
  br i1 %11, label %18, label %12

12:                                               ; preds = %7
  %13 = icmp slt i8 %8, 0
  br i1 %13, label %_ZN10ODDLParser9isNumericIcEEbT_.exit.thread, label %_ZN10ODDLParser9isNumericIcEEbT_.exit

_ZN10ODDLParser9isNumericIcEEbT_.exit:            ; preds = %12
  %14 = zext nneg i8 %8 to i64
  %15 = getelementptr inbounds nuw [256 x i8], ptr @_ZN10ODDLParserL14chartype_tableE, i64 0, i64 %14
  %16 = load i8, ptr %15, align 1
  %17 = icmp eq i8 %16, 1
  br i1 %17, label %18, label %_ZN10ODDLParser9isNumericIcEEbT_.exit.thread

18:                                               ; preds = %_ZN10ODDLParser9isNumericIcEEbT_.exit, %7
  br label %_ZN10ODDLParser9isNumericIcEEbT_.exit.thread

_ZN10ODDLParser9isNumericIcEEbT_.exit.thread:     ; preds = %12, %_ZN10ODDLParser9isNumericIcEEbT_.exit, %1, %18
  %.0 = phi i1 [ true, %18 ], [ true, %1 ], [ false, %_ZN10ODDLParser9isNumericIcEEbT_.exit ], [ false, %12 ]
  ret i1 %.0
}